; Function Attrs: mustprogress nofree norecurse nosync nounwind willreturn memory(argmem: readwrite) uwtable
define noundef zeroext i1 @_ZNK8QuantLib11EndCriteria18checkMaxIterationsEmRNS0_4TypeE(ptr nocapture noundef nonnull readonly align 8 dereferenceable(40) %this, i64 noundef %iteration, ptr nocapture noundef nonnull writeonly align 4 dereferenceable(4) %ecType) local_unnamed_addr #6 align 2 {
entry:
  %0 = load i64, ptr %this, align 8, !tbaa !3
  %cmp = icmp uge i64 %iteration, %0
  br i1 %cmp, label %if.end, label %return

if.end:                                           ; preds = %entry
  store i32 1, ptr %ecType, align 4, !tbaa !25
  br label %return

return:                                           ; preds = %entry, %if.end
  ret i1 %cmp
}